; Function Attrs: mustprogress uwtable
define void @_ZN6casadi4Qrqp13set_qrqp_probEv(ptr noundef nonnull align 8 dereferenceable(1660) %0) local_unnamed_addr #3 align 2 {
  %2 = getelementptr inbounds i8, ptr %0, i64 1312
  %3 = getelementptr inbounds i8, ptr %0, i64 1472
  store ptr %2, ptr %3, align 8
  %4 = getelementptr inbounds i8, ptr %0, i64 1576
  %5 = tail call noundef ptr @_ZNK6casadi8SparsitycvPKxEv(ptr noundef nonnull align 8 dereferenceable(8) %4)
  %6 = getelementptr inbounds i8, ptr %0, i64 1480
  store ptr %5, ptr %6, align 8
  %7 = getelementptr inbounds i8, ptr %0, i64 1584
  %8 = tail call noundef ptr @_ZNK6casadi8SparsitycvPKxEv(ptr noundef nonnull align 8 dereferenceable(8) %7)
  %9 = getelementptr inbounds i8, ptr %0, i64 1488
  store ptr %8, ptr %9, align 8
  %10 = getelementptr inbounds i8, ptr %0, i64 1592
  %11 = tail call noundef ptr @_ZNK6casadi8SparsitycvPKxEv(ptr noundef nonnull align 8 dereferenceable(8) %10)
  %12 = getelementptr inbounds i8, ptr %0, i64 1512
  store ptr %11, ptr %12, align 8
  %13 = getelementptr inbounds i8, ptr %0, i64 1600
  %14 = tail call noundef ptr @_ZNK6casadi8SparsitycvPKxEv(ptr noundef nonnull align 8 dereferenceable(8) %13)
  %15 = getelementptr inbounds i8, ptr %0, i64 1520
  store ptr %14, ptr %15, align 8
  %16 = getelementptr inbounds i8, ptr %0, i64 1608
  %17 = load ptr, ptr %16, align 8
  %18 = getelementptr inbounds i8, ptr %0, i64 1616
  %19 = load ptr, ptr %18, align 8
  %20 = icmp eq ptr %17, %19
  %spec.select.i = select i1 %20, ptr null, ptr %17
  %21 = getelementptr inbounds i8, ptr %0, i64 1496
  store ptr %spec.select.i, ptr %21, align 8
  %22 = getelementptr inbounds i8, ptr %0, i64 1632
  %23 = load ptr, ptr %22, align 8
  %24 = getelementptr inbounds i8, ptr %0, i64 1640
  %25 = load ptr, ptr %24, align 8
  %26 = icmp eq ptr %23, %25
  %spec.select.i1 = select i1 %26, ptr null, ptr %23
  %27 = getelementptr inbounds i8, ptr %0, i64 1504
  store ptr %spec.select.i1, ptr %27, align 8
  %28 = getelementptr inbounds i8, ptr %0, i64 1528
  store <2 x double> <double 0x10000000000000, double 0x7FF0000000000000>, ptr %28, align 8
  %29 = getelementptr inbounds i8, ptr %0, i64 1544
  store double 0.000000e+00, ptr %29, align 8
  %30 = getelementptr inbounds i8, ptr %0, i64 1552
  store i64 1000, ptr %30, align 8
  %31 = getelementptr inbounds i8, ptr %0, i64 1560
  store <2 x double> <double 1.000000e-08, double 1.000000e-08>, ptr %31, align 8
  ret void
}